target datalayout = "e-m:e-p270:32:32-p271:32:32-p272:64:64-i64:64-i128:128-f80:128-n8:16:32:64-S128"
target triple = "x86_64-pc-linux-gnu"

@NeverActAsServerClassMachine = external global i8, align 1
@AlwaysActAsServerClassMachine = external global i8, align 1
@_ZN19Abstract_VM_Version31_logical_processors_per_packageE = external global i32, align 4

; Function Attrs: mustprogress nounwind uwtable
define linkonce_odr hidden noundef i32 @_ZN19Abstract_VM_Version30logical_processors_per_packageEv() #1 comdat align 2 {
  %1 = load i32, ptr @_ZN19Abstract_VM_Version31_logical_processors_per_packageE, align 4
  ret i32 %1
}

; Function Attrs: mustprogress nounwind uwtable
define hidden noundef zeroext i1 @_ZN2os23is_server_class_machineEv() #1 align 2 {
  %1 = alloca i1, align 1
  %2 = alloca i8, align 1
  %3 = alloca i32, align 4
  %4 = alloca i64, align 8
  %5 = alloca i64, align 8
  %6 = alloca i32, align 4
  %7 = alloca i32, align 4
  %8 = load i8, ptr @NeverActAsServerClassMachine, align 1
  %9 = trunc i8 %8 to i1
  br i1 %9, label %10, label %11

10:                                               ; preds = %0
  store i1 false, ptr %1, align 1
  br label %38

11:                                               ; preds = %0
  %12 = load i8, ptr @AlwaysActAsServerClassMachine, align 1
  %13 = trunc i8 %12 to i1
  br i1 %13, label %14, label %15

14:                                               ; preds = %11
  store i1 true, ptr %1, align 1
  br label %38

15:                                               ; preds = %11
  store i8 0, ptr %2, align 1
  store i32 2, ptr %3, align 4
  store i64 2147483648, ptr %4, align 8
  store i64 268435456, ptr %5, align 8
  %16 = call noundef i32 @_ZN2os22active_processor_countEv()
  %17 = icmp sge i32 %16, 2
  br i1 %17, label %18, label %35

18:                                               ; preds = %15
  %19 = call noundef i64 @_ZN2os15physical_memoryEv()
  %20 = icmp uge i64 %19, 1879048192
  br i1 %20, label %21, label %35

21:                                               ; preds = %18
  %22 = call noundef i32 @_ZN19Abstract_VM_Version30logical_processors_per_packageEv()
  store i32 %22, ptr %6, align 4
  %23 = load i32, ptr %6, align 4
  %24 = icmp ugt i32 %23, 1
  br i1 %24, label %25, label %33

25:                                               ; preds = %21
  %26 = call noundef i32 @_ZN2os22active_processor_countEv()
  %27 = load i32, ptr %6, align 4
  %28 = udiv i32 %26, %27
  store i32 %28, ptr %7, align 4
  %29 = load i32, ptr %7, align 4
  %30 = icmp uge i32 %29, 2
  br i1 %30, label %31, label %32

31:                                               ; preds = %25
  store i8 1, ptr %2, align 1
  br label %32

32:                                               ; preds = %31, %25
  br label %34

33:                                               ; preds = %21
  store i8 1, ptr %2, align 1
  br label %34

34:                                               ; preds = %33, %32
  br label %35

35:                                               ; preds = %34, %18, %15
  %36 = load i8, ptr %2, align 1
  %37 = trunc i8 %36 to i1
  store i1 %37, ptr %1, align 1
  br label %38

38:                                               ; preds = %35, %14, %10
  %39 = load i1, ptr %1, align 1
  ret i1 %39
}