; Function Attrs: mustprogress nounwind uwtable
define hidden noundef zeroext i1 @_ZN2os23is_server_class_machineEv() local_unnamed_addr #3 align 2 {
  %1 = load i8, ptr @NeverActAsServerClassMachine, align 1
  %2 = trunc i8 %1 to i1
  br i1 %2, label %19, label %3

3:                                                ; preds = %0
  %4 = load i8, ptr @AlwaysActAsServerClassMachine, align 1
  %5 = trunc i8 %4 to i1
  br i1 %5, label %19, label %6

6:                                                ; preds = %3
  %7 = tail call noundef i32 @_ZN2os22active_processor_countEv() #28
  %8 = icmp sgt i32 %7, 1
  br i1 %8, label %9, label %19

9:                                                ; preds = %6
  %10 = tail call noundef i64 @_ZN2os15physical_memoryEv() #28
  %11 = icmp ugt i64 %10, 1879048191
  br i1 %11, label %12, label %19

12:                                               ; preds = %9
  %13 = load i32, ptr @_ZN19Abstract_VM_Version31_logical_processors_per_packageE, align 4
  %14 = icmp ugt i32 %13, 1
  br i1 %14, label %15, label %19

15:                                               ; preds = %12
  %16 = tail call noundef i32 @_ZN2os22active_processor_countEv() #28
  %17 = udiv i32 %16, %13
  %18 = icmp ugt i32 %17, 1
  br label %19

19:                                               ; preds = %15, %6, %9, %12, %3, %0
  %.0 = phi i1 [ false, %0 ], [ true, %3 ], [ false, %9 ], [ false, %6 ], [ %18, %15 ], [ true, %12 ]
  ret i1 %.0
}